target datalayout = "e-m:e-p270:32:32-p271:32:32-p272:64:64-i64:64-i128:128-f80:128-n8:16:32:64-S128"
target triple = "x86_64-pc-linux-gnu"

%struct.coll_env = type { ptr, %struct.coll_env_coll, i32 }
%struct.coll_env_coll = type { %struct.tMPI_Atomic, %struct.tMPI_Atomic, ptr }
%struct.tMPI_Atomic = type { i32, [60 x i8] }
%struct.coll_env_thread = type { %struct.tMPI_Atomic, %struct.tMPI_Atomic, i32, ptr, ptr, ptr, %struct.tMPI_Event_t, %struct.tMPI_Event_t, ptr }
%struct.tMPI_Event_t = type { %struct.tMPI_Atomic, i32 }

; Function Attrs: mustprogress uwtable
define void @_Z20tMPI_Wait_for_othersP8coll_envi(ptr noundef %0, i32 noundef %1) #0 {
  %3 = alloca ptr, align 8
  %4 = alloca i32, align 4
  store ptr %0, ptr %3, align 8, !tbaa !3
  store i32 %1, ptr %4, align 4, !tbaa !8
  %5 = load ptr, ptr %3, align 8, !tbaa !3
  %6 = getelementptr inbounds nuw %struct.coll_env, ptr %5, i32 0, i32 2
  %7 = load i32, ptr %6, align 8, !tbaa !15
  %8 = icmp sgt i32 %7, 1
  br i1 %8, label %9, label %28

9:                                                ; preds = %2
  %10 = load ptr, ptr %3, align 8, !tbaa !3
  %11 = getelementptr inbounds nuw %struct.coll_env, ptr %10, i32 0, i32 0
  %12 = load ptr, ptr %11, align 8, !tbaa !10
  %13 = load i32, ptr %4, align 4, !tbaa !8
  %14 = sext i32 %13 to i64
  %15 = getelementptr inbounds %struct.coll_env_thread, ptr %12, i64 %14
  %16 = getelementptr inbounds nuw %struct.coll_env_thread, ptr %15, i32 0, i32 6
  %17 = call noundef i32 @_Z15tMPI_Event_waitP12tMPI_Event_t(ptr noundef %16)
  %18 = load ptr, ptr %3, align 8, !tbaa !3
  %19 = getelementptr inbounds nuw %struct.coll_env, ptr %18, i32 0, i32 0
  %20 = load ptr, ptr %19, align 8, !tbaa !10
  %21 = load i32, ptr %4, align 4, !tbaa !8
  %22 = sext i32 %21 to i64
  %23 = getelementptr inbounds %struct.coll_env_thread, ptr %20, i64 %22
  %24 = getelementptr inbounds nuw %struct.coll_env_thread, ptr %23, i32 0, i32 6
  %25 = getelementptr inbounds nuw %struct.tMPI_Event_t, ptr %24, i32 0, i32 1
  %26 = load i32, ptr %25, align 8, !tbaa !71
  %27 = add nsw i32 %26, 1
  store i32 %27, ptr %25, align 8, !tbaa !71
  br label %28

28:                                               ; preds = %9, %2
  ret void
}