; Function Attrs: mustprogress uwtable
define void @_Z20tMPI_Wait_for_othersP8coll_envi(ptr noundef readonly captures(none) %0, i32 noundef %1) local_unnamed_addr #0 {
  %3 = getelementptr inbounds nuw i8, ptr %0, i64 144
  %4 = load i32, ptr %3, align 8, !tbaa !12
  %5 = icmp sgt i32 %4, 1
  br i1 %5, label %6, label %15

6:                                                ; preds = %2
  %7 = load ptr, ptr %0, align 8, !tbaa !3
  %8 = sext i32 %1 to i64
  %9 = getelementptr inbounds %struct.coll_env_thread, ptr %7, i64 %8, i32 6
  %10 = tail call noundef i32 @_Z15tMPI_Event_waitP12tMPI_Event_t(ptr noundef nonnull %9)
  %11 = load ptr, ptr %0, align 8, !tbaa !3
  %12 = getelementptr inbounds %struct.coll_env_thread, ptr %11, i64 %8, i32 6, i32 1
  %13 = load i32, ptr %12, align 8, !tbaa !64
  %14 = add nsw i32 %13, 1
  store i32 %14, ptr %12, align 8, !tbaa !64
  br label %15

15:                                               ; preds = %6, %2
  ret void
}